; ModuleID = '57/21.c'
source_filename = "57/21.c"
target datalayout = "e-m:e-p270:32:32-p271:32:32-p272:64:64-i64:64-f80:128-n8:16:32:64-S128"
target triple = "x86_64-pc-linux-gnu"

@.str = private unnamed_addr constant [3 x i8] c"%d\00", align 1

; Function Attrs: noinline nounwind uwtable
define dso_local i32 @main(i32 %0, i8** %1) #0 {
  %3 = alloca i32, align 4
  %4 = alloca i32, align 4
  %5 = alloca i8**, align 8
  %6 = alloca [100 x [100 x i8]], align 16
  %7 = alloca [100 x i8], align 16
  %8 = alloca i32, align 4
  %9 = alloca i32, align 4
  %10 = alloca i32, align 4
  %11 = alloca i32, align 4
  store i32 0, i32* %3, align 4
  store i32 %0, i32* %4, align 4
  store i8** %1, i8*** %5, align 8
  %12 = call i32 (i8*, ...) @__isoc99_scanf(i8* getelementptr inbounds ([3 x i8], [3 x i8]* @.str, i64 0, i64 0), i32* %8)
  store i32 0, i32* %9, align 4
  br label %13

13:                                               ; preds = %24, %2
  %14 = load i32, i32* %9, align 4
  %15 = load i32, i32* %8, align 4
  %16 = add nsw i32 %15, 1
  %17 = icmp slt i32 %14, %16
  br i1 %17, label %18, label %27

18:                                               ; preds = %13
  %19 = load i32, i32* %9, align 4
  %20 = sext i32 %19 to i64
  %21 = getelementptr inbounds [100 x [100 x i8]], [100 x [100 x i8]]* %6, i64 0, i64 %20
  %22 = getelementptr inbounds [100 x i8], [100 x i8]* %21, i64 0, i64 0
  %23 = call i32 (i8*, ...) bitcast (i32 (...)* @gets to i32 (i8*, ...)*)(i8* %22)
  br label %24

24:                                               ; preds = %18
  %25 = load i32, i32* %9, align 4
  %26 = add nsw i32 %25, 1
  store i32 %26, i32* %9, align 4
  br label %13

27:                                               ; preds = %13
  store i32 0, i32* %9, align 4
  br label %28

28:                                               ; preds = %195, %27
  %29 = load i32, i32* %9, align 4
  %30 = load i32, i32* %8, align 4
  %31 = add nsw i32 %30, 1
  %32 = icmp slt i32 %29, %31
  br i1 %32, label %33, label %198

33:                                               ; preds = %28
  %34 = load i32, i32* %9, align 4
  %35 = sext i32 %34 to i64
  %36 = getelementptr inbounds [100 x [100 x i8]], [100 x [100 x i8]]* %6, i64 0, i64 %35
  %37 = getelementptr inbounds [100 x i8], [100 x i8]* %36, i64 0, i64 0
  %38 = call i64 @strlen(i8* %37) #3
  %39 = trunc i64 %38 to i32
  store i32 %39, i32* %10, align 4
  %40 = load i32, i32* %9, align 4
  %41 = sext i32 %40 to i64
  %42 = getelementptr inbounds [100 x [100 x i8]], [100 x [100 x i8]]* %6, i64 0, i64 %41
  %43 = load i32, i32* %10, align 4
  %44 = sub nsw i32 %43, 2
  %45 = sext i32 %44 to i64
  %46 = getelementptr inbounds [100 x i8], [100 x i8]* %42, i64 0, i64 %45
  %47 = load i8, i8* %46, align 1
  %48 = sext i8 %47 to i32
  %49 = icmp eq i32 %48, 101
  br i1 %49, label %50, label %87

50:                                               ; preds = %33
  %51 = load i32, i32* %9, align 4
  %52 = sext i32 %51 to i64
  %53 = getelementptr inbounds [100 x [100 x i8]], [100 x [100 x i8]]* %6, i64 0, i64 %52
  %54 = load i32, i32* %10, align 4
  %55 = sub nsw i32 %54, 1
  %56 = sext i32 %55 to i64
  %57 = getelementptr inbounds [100 x i8], [100 x i8]* %53, i64 0, i64 %56
  %58 = load i8, i8* %57, align 1
  %59 = sext i8 %58 to i32
  %60 = icmp eq i32 %59, 114
  br i1 %60, label %61, label %87

61:                                               ; preds = %50
  store i32 0, i32* %11, align 4
  br label %62

62:                                               ; preds = %78, %61
  %63 = load i32, i32* %11, align 4
  %64 = load i32, i32* %10, align 4
  %65 = sub nsw i32 %64, 2
  %66 = icmp slt i32 %63, %65
  br i1 %66, label %67, label %81

67:                                               ; preds = %62
  %68 = load i32, i32* %9, align 4
  %69 = sext i32 %68 to i64
  %70 = getelementptr inbounds [100 x [100 x i8]], [100 x [100 x i8]]* %6, i64 0, i64 %69
  %71 = load i32, i32* %11, align 4
  %72 = sext i32 %71 to i64
  %73 = getelementptr inbounds [100 x i8], [100 x i8]* %70, i64 0, i64 %72
  %74 = load i8, i8* %73, align 1
  %75 = load i32, i32* %11, align 4
  %76 = sext i32 %75 to i64
  %77 = getelementptr inbounds [100 x i8], [100 x i8]* %7, i64 0, i64 %76
  store i8 %74, i8* %77, align 1
  br label %78

78:                                               ; preds = %67
  %79 = load i32, i32* %11, align 4
  %80 = add nsw i32 %79, 1
  store i32 %80, i32* %11, align 4
  br label %62

81:                                               ; preds = %62
  %82 = load i32, i32* %11, align 4
  %83 = sext i32 %82 to i64
  %84 = getelementptr inbounds [100 x i8], [100 x i8]* %7, i64 0, i64 %83
  store i8 0, i8* %84, align 1
  %85 = getelementptr inbounds [100 x i8], [100 x i8]* %7, i64 0, i64 0
  %86 = call i32 @puts(i8* %85)
  br label %87

87:                                               ; preds = %81, %50, %33
  %88 = load i32, i32* %9, align 4
  %89 = sext i32 %88 to i64
  %90 = getelementptr inbounds [100 x [100 x i8]], [100 x [100 x i8]]* %6, i64 0, i64 %89
  %91 = load i32, i32* %10, align 4
  %92 = sub nsw i32 %91, 2
  %93 = sext i32 %92 to i64
  %94 = getelementptr inbounds [100 x i8], [100 x i8]* %90, i64 0, i64 %93
  %95 = load i8, i8* %94, align 1
  %96 = sext i8 %95 to i32
  %97 = icmp eq i32 %96, 108
  br i1 %97, label %98, label %135

98:                                               ; preds = %87
  %99 = load i32, i32* %9, align 4
  %100 = sext i32 %99 to i64
  %101 = getelementptr inbounds [100 x [100 x i8]], [100 x [100 x i8]]* %6, i64 0, i64 %100
  %102 = load i32, i32* %10, align 4
  %103 = sub nsw i32 %102, 1
  %104 = sext i32 %103 to i64
  %105 = getelementptr inbounds [100 x i8], [100 x i8]* %101, i64 0, i64 %104
  %106 = load i8, i8* %105, align 1
  %107 = sext i8 %106 to i32
  %108 = icmp eq i32 %107, 121
  br i1 %108, label %109, label %135

109:                                              ; preds = %98
  store i32 0, i32* %11, align 4
  br label %110

110:                                              ; preds = %126, %109
  %111 = load i32, i32* %11, align 4
  %112 = load i32, i32* %10, align 4
  %113 = sub nsw i32 %112, 2
  %114 = icmp slt i32 %111, %113
  br i1 %114, label %115, label %129

115:                                              ; preds = %110
  %116 = load i32, i32* %9, align 4
  %117 = sext i32 %116 to i64
  %118 = getelementptr inbounds [100 x [100 x i8]], [100 x [100 x i8]]* %6, i64 0, i64 %117
  %119 = load i32, i32* %11, align 4
  %120 = sext i32 %119 to i64
  %121 = getelementptr inbounds [100 x i8], [100 x i8]* %118, i64 0, i64 %120
  %122 = load i8, i8* %121, align 1
  %123 = load i32, i32* %11, align 4
  %124 = sext i32 %123 to i64
  %125 = getelementptr inbounds [100 x i8], [100 x i8]* %7, i64 0, i64 %124
  store i8 %122, i8* %125, align 1
  br label %126

126:                                              ; preds = %115
  %127 = load i32, i32* %11, align 4
  %128 = add nsw i32 %127, 1
  store i32 %128, i32* %11, align 4
  br label %110

129:                                              ; preds = %110
  %130 = load i32, i32* %11, align 4
  %131 = sext i32 %130 to i64
  %132 = getelementptr inbounds [100 x i8], [100 x i8]* %7, i64 0, i64 %131
  store i8 0, i8* %132, align 1
  %133 = getelementptr inbounds [100 x i8], [100 x i8]* %7, i64 0, i64 0
  %134 = call i32 @puts(i8* %133)
  br label %135

135:                                              ; preds = %129, %98, %87
  %136 = load i32, i32* %9, align 4
  %137 = sext i32 %136 to i64
  %138 = getelementptr inbounds [100 x [100 x i8]], [100 x [100 x i8]]* %6, i64 0, i64 %137
  %139 = load i32, i32* %10, align 4
  %140 = sub nsw i32 %139, 3
  %141 = sext i32 %140 to i64
  %142 = getelementptr inbounds [100 x i8], [100 x i8]* %138, i64 0, i64 %141
  %143 = load i8, i8* %142, align 1
  %144 = sext i8 %143 to i32
  %145 = icmp eq i32 %144, 105
  br i1 %145, label %146, label %194

146:                                              ; preds = %135
  %147 = load i32, i32* %9, align 4
  %148 = sext i32 %147 to i64
  %149 = getelementptr inbounds [100 x [100 x i8]], [100 x [100 x i8]]* %6, i64 0, i64 %148
  %150 = load i32, i32* %10, align 4
  %151 = sub nsw i32 %150, 2
  %152 = sext i32 %151 to i64
  %153 = getelementptr inbounds [100 x i8], [100 x i8]* %149, i64 0, i64 %152
  %154 = load i8, i8* %153, align 1
  %155 = sext i8 %154 to i32
  %156 = icmp eq i32 %155, 110
  br i1 %156, label %157, label %194

157:                                              ; preds = %146
  %158 = load i32, i32* %9, align 4
  %159 = sext i32 %158 to i64
  %160 = getelementptr inbounds [100 x [100 x i8]], [100 x [100 x i8]]* %6, i64 0, i64 %159
  %161 = load i32, i32* %10, align 4
  %162 = sub nsw i32 %161, 1
  %163 = sext i32 %162 to i64
  %164 = getelementptr inbounds [100 x i8], [100 x i8]* %160, i64 0, i64 %163
  %165 = load i8, i8* %164, align 1
  %166 = sext i8 %165 to i32
  %167 = icmp eq i32 %166, 103
  br i1 %167, label %168, label %194

168:                                              ; preds = %157
  store i32 0, i32* %11, align 4
  br label %169

169:                                              ; preds = %185, %168
  %170 = load i32, i32* %11, align 4
  %171 = load i32, i32* %10, align 4
  %172 = sub nsw i32 %171, 3
  %173 = icmp slt i32 %170, %172
  br i1 %173, label %174, label %188

174:                                              ; preds = %169
  %175 = load i32, i32* %9, align 4
  %176 = sext i32 %175 to i64
  %177 = getelementptr inbounds [100 x [100 x i8]], [100 x [100 x i8]]* %6, i64 0, i64 %176
  %178 = load i32, i32* %11, align 4
  %179 = sext i32 %178 to i64
  %180 = getelementptr inbounds [100 x i8], [100 x i8]* %177, i64 0, i64 %179
  %181 = load i8, i8* %180, align 1
  %182 = load i32, i32* %11, align 4
  %183 = sext i32 %182 to i64
  %184 = getelementptr inbounds [100 x i8], [100 x i8]* %7, i64 0, i64 %183
  store i8 %181, i8* %184, align 1
  br label %185

185:                                              ; preds = %174
  %186 = load i32, i32* %11, align 4
  %187 = add nsw i32 %186, 1
  store i32 %187, i32* %11, align 4
  br label %169

188:                                              ; preds = %169
  %189 = load i32, i32* %11, align 4
  %190 = sext i32 %189 to i64
  %191 = getelementptr inbounds [100 x i8], [100 x i8]* %7, i64 0, i64 %190
  store i8 0, i8* %191, align 1
  %192 = getelementptr inbounds [100 x i8], [100 x i8]* %7, i64 0, i64 0
  %193 = call i32 @puts(i8* %192)
  br label %194

194:                                              ; preds = %188, %157, %146, %135
  br label %195

195:                                              ; preds = %194
  %196 = load i32, i32* %9, align 4
  %197 = add nsw i32 %196, 1
  store i32 %197, i32* %9, align 4
  br label %28

198:                                              ; preds = %28
  ret i32 0
}

declare dso_local i32 @__isoc99_scanf(i8*, ...) #1

declare dso_local i32 @gets(...) #1

; Function Attrs: nounwind readonly
declare dso_local i64 @strlen(i8*) #2

declare dso_local i32 @puts(i8*) #1


!llvm.module.flags = !{!0}
!llvm.ident = !{!1}

!0 = !{i32 1, !"wchar_size", i32 4}
!1 = !{!"clang version 10.0.0-4ubuntu1 "}
